; Function Attrs: mustprogress uwtable
define hidden void @_ZN9expr_randC2ER11ast_manager(ptr noundef nonnull align 8 dereferenceable(56) %this, ptr noundef nonnull align 8 dereferenceable(976) %m) unnamed_addr #3 align 2 personality ptr @__gxx_personality_v0 {
entry:
  store ptr %m, ptr %this, align 8
  %m_max_steps = getelementptr inbounds i8, ptr %this, i64 8
  store i32 10, ptr %m_max_steps, align 8
  %m_random = getelementptr inbounds i8, ptr %this, i64 12
  store i32 0, ptr %m_random, align 4
  %m_funcs = getelementptr inbounds i8, ptr %this, i64 16
  %0 = ptrtoint ptr %m to i64
  store i64 %0, ptr %m_funcs, align 8
  %m_nodes.i.i = getelementptr inbounds i8, ptr %this, i64 24
  store ptr null, ptr %m_nodes.i.i, align 8
  %call.i.i.i.i2 = invoke noalias noundef ptr @_ZN6memory8allocateEm(i64 noundef 128)
          to label %invoke.cont unwind label %lpad

invoke.cont:                                      ; preds = %entry
  %m_nodes = getelementptr inbounds i8, ptr %this, i64 32
  tail call void @llvm.memset.p0.i64(ptr noundef nonnull align 8 dereferenceable(128) %call.i.i.i.i2, i8 0, i64 128, i1 false)
  store ptr %call.i.i.i.i2, ptr %m_nodes, align 8
  %m_capacity.i.i = getelementptr inbounds i8, ptr %this, i64 40
  store i32 8, ptr %m_capacity.i.i, align 8
  %m_size.i.i = getelementptr inbounds i8, ptr %this, i64 44
  store i32 0, ptr %m_size.i.i, align 4
  %m_num_deleted.i.i = getelementptr inbounds i8, ptr %this, i64 48
  store i32 0, ptr %m_num_deleted.i.i, align 8
  ret void

lpad:                                             ; preds = %entry
  %1 = landingpad { ptr, i32 }
          cleanup
  tail call void @_ZN10ref_vectorI9func_decl11ast_managerED2Ev(ptr noundef nonnull align 8 dereferenceable(16) %m_funcs) #14
  resume { ptr, i32 } %1
}